target datalayout = "e-m:e-p270:32:32-p271:32:32-p272:64:64-i64:64-i128:128-f80:128-n8:16:32:64-S128"
target triple = "x86_64-pc-linux-gnu"

; Function Attrs: mustprogress uwtable
define hidden void @_ZN19OpenColorIO_v2_5dev22CTFReaderRangeValueElt5startEPPKc(ptr noundef nonnull align 8 dereferenceable(96) %0, ptr noundef %1) unnamed_addr #5 align 2 {
  %3 = alloca ptr, align 8
  %4 = alloca ptr, align 8
  %5 = alloca i32, align 4
  store ptr %0, ptr %3, align 8, !tbaa !728
  store ptr %1, ptr %4, align 8, !tbaa !51
  %6 = load ptr, ptr %3, align 8
  call void @llvm.lifetime.start.p0(i64 4, ptr %5) #3
  store i32 0, ptr %5, align 4, !tbaa !13
  br label %7

7:                                                ; preds = %14, %2
  %8 = load ptr, ptr %4, align 8, !tbaa !51
  %9 = load i32, ptr %5, align 4, !tbaa !13
  %10 = zext i32 %9 to i64
  %11 = getelementptr inbounds nuw ptr, ptr %8, i64 %10
  %12 = load ptr, ptr %11, align 8, !tbaa !54
  %13 = icmp ne ptr %12, null
  br i1 %13, label %14, label %22

14:                                               ; preds = %7
  %15 = load ptr, ptr %4, align 8, !tbaa !51
  %16 = load i32, ptr %5, align 4, !tbaa !13
  %17 = zext i32 %16 to i64
  %18 = getelementptr inbounds nuw ptr, ptr %15, i64 %17
  %19 = load ptr, ptr %18, align 8, !tbaa !54
  call void @_ZNK19OpenColorIO_v2_5dev16XmlReaderElement19logParameterWarningEPKc(ptr noundef nonnull align 8 dereferenceable(80) %6, ptr noundef %19)
  %20 = load i32, ptr %5, align 4, !tbaa !13
  %21 = add i32 %20, 2
  store i32 %21, ptr %5, align 4, !tbaa !13
  br label %7, !llvm.loop !730

22:                                               ; preds = %7
  call void @llvm.lifetime.end.p0(i64 4, ptr %5) #3
  ret void
}