; Function Attrs: mustprogress uwtable
define hidden void @_ZN19OpenColorIO_v2_5dev22CTFReaderRangeValueElt5startEPPKc(ptr noundef nonnull align 8 dereferenceable(96) %0, ptr noundef readonly captures(none) %1) unnamed_addr #4 align 2 {
  %3 = load ptr, ptr %1, align 8, !tbaa !42
  %.not6 = icmp eq ptr %3, null
  br i1 %.not6, label %._crit_edge, label %.lr.ph

.lr.ph:                                           ; preds = %2, %.lr.ph
  %4 = phi ptr [ %8, %.lr.ph ], [ %3, %2 ]
  %.07 = phi i32 [ %5, %.lr.ph ], [ 0, %2 ]
  tail call void @_ZNK19OpenColorIO_v2_5dev16XmlReaderElement19logParameterWarningEPKc(ptr noundef nonnull align 8 dereferenceable(80) %0, ptr noundef nonnull %4)
  %5 = add i32 %.07, 2
  %6 = zext i32 %5 to i64
  %7 = getelementptr inbounds nuw ptr, ptr %1, i64 %6
  %8 = load ptr, ptr %7, align 8, !tbaa !42
  %.not = icmp eq ptr %8, null
  br i1 %.not, label %._crit_edge, label %.lr.ph, !llvm.loop !1217

._crit_edge:                                      ; preds = %.lr.ph, %2
  ret void
}